; Function Attrs: mustprogress uwtable
define void @_ZN6duckdb11dbp_encoder10WriteValueIlEEvRNS_10DbpEncoderERNS_11WriteStreamERKT_(ptr noundef nonnull align 8 dereferenceable(18480) %0, ptr noundef nonnull align 8 dereferenceable(8) %1, ptr noundef nonnull readonly align 8 captures(none) dereferenceable(8) %2) local_unnamed_addr #1 {
  %4 = load i64, ptr %2, align 8, !tbaa !24
  %5 = getelementptr inbounds nuw i8, ptr %0, i64 16
  %6 = load i64, ptr %5, align 8, !tbaa !26
  %7 = sub i64 %4, %6
  store i64 %4, ptr %5, align 8, !tbaa !26
  %8 = getelementptr inbounds nuw i8, ptr %0, i64 24
  %9 = load i64, ptr %8, align 8, !tbaa !27
  %10 = tail call noundef i64 @llvm.smin.i64(i64 %9, i64 %7)
  store i64 %10, ptr %8, align 8, !tbaa !27
  %11 = getelementptr inbounds nuw i8, ptr %0, i64 32
  %12 = getelementptr inbounds nuw i8, ptr %0, i64 16416
  %13 = load i64, ptr %12, align 8, !tbaa !28
  %14 = add i64 %13, 1
  store i64 %14, ptr %12, align 8, !tbaa !28
  %15 = getelementptr inbounds nuw [2048 x i64], ptr %11, i64 0, i64 %13
  store i64 %7, ptr %15, align 8, !tbaa !24
  %16 = load i64, ptr %12, align 8, !tbaa !28
  %17 = icmp eq i64 %16, 2048
  br i1 %17, label %18, label %_ZN6duckdb10DbpEncoder10WriteValueERNS_11WriteStreamERKl.exit

18:                                               ; preds = %3
  tail call void @_ZN6duckdb10DbpEncoder10WriteBlockERNS_11WriteStreamE(ptr noundef nonnull align 8 dereferenceable(18480) %0, ptr noundef nonnull align 8 dereferenceable(8) %1)
  br label %_ZN6duckdb10DbpEncoder10WriteValueERNS_11WriteStreamERKl.exit

_ZN6duckdb10DbpEncoder10WriteValueERNS_11WriteStreamERKl.exit: ; preds = %3, %18
  ret void
}